; Function Attrs: mustprogress nounwind uwtable
define hidden noundef zeroext i1 @_ZN4Node23is_iteratively_computedEv(ptr noundef nonnull align 8 dereferenceable(52) %0) local_unnamed_addr #0 align 2 {
  %2 = load ptr, ptr %0, align 8
  %3 = getelementptr inbounds i8, ptr %2, i64 112
  %4 = load ptr, ptr %3, align 8
  %5 = tail call noundef i32 %4(ptr noundef nonnull align 8 dereferenceable(52) %0) #15
  %.not = icmp eq i32 %5, 0
  br i1 %.not, label %.loopexit15, label %.preheader16

.preheader16:                                     ; preds = %1
  %6 = getelementptr inbounds i8, ptr %0, i64 24
  %7 = load i32, ptr %6, align 8
  %8 = icmp ugt i32 %7, 1
  br i1 %8, label %.lr.ph20, label %.loopexit15

.lr.ph20:                                         ; preds = %.preheader16
  %9 = getelementptr inbounds i8, ptr %0, i64 8
  %10 = load ptr, ptr %9, align 8
  %wide.trip.count26 = zext i32 %7 to i64
  br label %11

11:                                               ; preds = %.lr.ph20, %.loopexit
  %indvars.iv23 = phi i64 [ 1, %.lr.ph20 ], [ %indvars.iv.next24, %.loopexit ]
  %12 = getelementptr inbounds ptr, ptr %10, i64 %indvars.iv23
  %13 = load ptr, ptr %12, align 8
  %.not14 = icmp eq ptr %13, null
  br i1 %.not14, label %.loopexit, label %14

14:                                               ; preds = %11
  %15 = getelementptr inbounds i8, ptr %13, i64 44
  %16 = load i32, ptr %15, align 4
  %17 = and i32 %16, 15
  %18 = icmp eq i32 %17, 12
  br i1 %18, label %.preheader, label %.loopexit

.preheader:                                       ; preds = %14
  %19 = getelementptr inbounds i8, ptr %13, i64 24
  %20 = load i32, ptr %19, align 8
  %21 = icmp ugt i32 %20, 1
  br i1 %21, label %.lr.ph, label %.loopexit

.lr.ph:                                           ; preds = %.preheader
  %22 = getelementptr inbounds i8, ptr %13, i64 8
  %23 = load ptr, ptr %22, align 8
  %wide.trip.count = zext i32 %20 to i64
  br label %25

24:                                               ; preds = %25
  %indvars.iv.next = add nuw nsw i64 %indvars.iv, 1
  %exitcond.not = icmp eq i64 %indvars.iv.next, %wide.trip.count
  br i1 %exitcond.not, label %.loopexit, label %25, !llvm.loop !42

25:                                               ; preds = %.lr.ph, %24
  %indvars.iv = phi i64 [ 1, %.lr.ph ], [ %indvars.iv.next, %24 ]
  %26 = getelementptr inbounds ptr, ptr %23, i64 %indvars.iv
  %27 = load ptr, ptr %26, align 8
  %28 = icmp eq ptr %27, %0
  br i1 %28, label %.loopexit15, label %24

.loopexit:                                        ; preds = %24, %.preheader, %11, %14
  %indvars.iv.next24 = add nuw nsw i64 %indvars.iv23, 1
  %exitcond27.not = icmp eq i64 %indvars.iv.next24, %wide.trip.count26
  br i1 %exitcond27.not, label %.loopexit15, label %11, !llvm.loop !43

.loopexit15:                                      ; preds = %.loopexit, %25, %.preheader16, %1
  %.011 = phi i1 [ false, %1 ], [ false, %.preheader16 ], [ true, %25 ], [ false, %.loopexit ]
  ret i1 %.011
}